target datalayout = "e-m:e-p270:32:32-p271:32:32-p272:64:64-i64:64-i128:128-f80:128-n8:16:32:64-S128"
target triple = "x86_64-pc-linux-gnu"

%"class.Ipopt::ReferencedObject.base" = type <{ ptr, i32 }>
%"class.std::__cxx11::basic_string" = type { %"struct.std::__cxx11::basic_string<char>::_Alloc_hider", i64, %union.anon }
%"struct.std::__cxx11::basic_string<char>::_Alloc_hider" = type { ptr }
%union.anon = type { i64, [8 x i8] }
%"class.Ipopt::Journal" = type { %"class.Ipopt::ReferencedObject.base", %"class.std::__cxx11::basic_string", [32 x i32] }
%"class.Ipopt::FileJournal" = type { %"class.Ipopt::Journal", ptr }

@stdout = external global ptr, align 8
@stderr = external global ptr, align 8
@.str.3 = private unnamed_addr constant [7 x i8] c"stdout\00", align 1
@.str.4 = private unnamed_addr constant [7 x i8] c"stderr\00", align 1
@.str.5 = private unnamed_addr constant [3 x i8] c"a+\00", align 1
@.str.6 = private unnamed_addr constant [3 x i8] c"w+\00", align 1

; Function Attrs: mustprogress uwtable
define noundef zeroext i1 @_ZN5Ipopt11FileJournal4OpenEPKcb(ptr noundef nonnull align 8 dereferenceable(184) %0, ptr noundef %1, i1 noundef zeroext %2) unnamed_addr #0 align 2 {
  %4 = alloca i1, align 1
  %5 = alloca ptr, align 8
  %6 = alloca ptr, align 8
  %7 = alloca i8, align 1
  store ptr %0, ptr %5, align 8
  store ptr %1, ptr %6, align 8
  %8 = zext i1 %2 to i8
  store i8 %8, ptr %7, align 1
  %9 = load ptr, ptr %5, align 8
  %10 = getelementptr inbounds %"class.Ipopt::FileJournal", ptr %9, i32 0, i32 1
  %11 = load ptr, ptr %10, align 8
  %12 = icmp ne ptr %11, null
  br i1 %12, label %13, label %27

13:                                               ; preds = %3
  %14 = getelementptr inbounds %"class.Ipopt::FileJournal", ptr %9, i32 0, i32 1
  %15 = load ptr, ptr %14, align 8
  %16 = load ptr, ptr @stdout, align 8
  %17 = icmp ne ptr %15, %16
  br i1 %17, label %18, label %27

18:                                               ; preds = %13
  %19 = getelementptr inbounds %"class.Ipopt::FileJournal", ptr %9, i32 0, i32 1
  %20 = load ptr, ptr %19, align 8
  %21 = load ptr, ptr @stderr, align 8
  %22 = icmp ne ptr %20, %21
  br i1 %22, label %23, label %27

23:                                               ; preds = %18
  %24 = getelementptr inbounds %"class.Ipopt::FileJournal", ptr %9, i32 0, i32 1
  %25 = load ptr, ptr %24, align 8
  %26 = call i32 @fclose(ptr noundef %25)
  br label %27

27:                                               ; preds = %23, %18, %13, %3
  %28 = getelementptr inbounds %"class.Ipopt::FileJournal", ptr %9, i32 0, i32 1
  store ptr null, ptr %28, align 8
  %29 = load ptr, ptr %6, align 8
  %30 = call i32 @strcmp(ptr noundef @.str.3, ptr noundef %29) #15
  %31 = icmp eq i32 %30, 0
  br i1 %31, label %32, label %35

32:                                               ; preds = %27
  %33 = load ptr, ptr @stdout, align 8
  %34 = getelementptr inbounds %"class.Ipopt::FileJournal", ptr %9, i32 0, i32 1
  store ptr %33, ptr %34, align 8
  store i1 true, ptr %4, align 1
  br label %60

35:                                               ; preds = %27
  %36 = load ptr, ptr %6, align 8
  %37 = call i32 @strcmp(ptr noundef @.str.4, ptr noundef %36) #15
  %38 = icmp eq i32 %37, 0
  br i1 %38, label %39, label %42

39:                                               ; preds = %35
  %40 = load ptr, ptr @stderr, align 8
  %41 = getelementptr inbounds %"class.Ipopt::FileJournal", ptr %9, i32 0, i32 1
  store ptr %40, ptr %41, align 8
  store i1 true, ptr %4, align 1
  br label %60

42:                                               ; preds = %35
  %43 = load ptr, ptr %6, align 8
  %44 = load i8, ptr %7, align 1
  %45 = trunc i8 %44 to i1
  br i1 %45, label %46, label %47

46:                                               ; preds = %42
  br label %48

47:                                               ; preds = %42
  br label %48

48:                                               ; preds = %47, %46
  %49 = phi ptr [ @.str.5, %46 ], [ @.str.6, %47 ]
  %50 = getelementptr inbounds [3 x i8], ptr %49, i64 0, i64 0
  %51 = call noalias ptr @fopen(ptr noundef %43, ptr noundef %50)
  %52 = getelementptr inbounds %"class.Ipopt::FileJournal", ptr %9, i32 0, i32 1
  store ptr %51, ptr %52, align 8
  %53 = getelementptr inbounds %"class.Ipopt::FileJournal", ptr %9, i32 0, i32 1
  %54 = load ptr, ptr %53, align 8
  %55 = icmp ne ptr %54, null
  br i1 %55, label %56, label %57

56:                                               ; preds = %48
  store i1 true, ptr %4, align 1
  br label %60

57:                                               ; preds = %48
  br label %58

58:                                               ; preds = %57
  br label %59

59:                                               ; preds = %58
  store i1 false, ptr %4, align 1
  br label %60

60:                                               ; preds = %59, %56, %39, %32
  %61 = load i1, ptr %4, align 1
  ret i1 %61
}