; Function Attrs: mustprogress nofree nounwind uwtable
define noundef zeroext i1 @_ZN5Ipopt11FileJournal4OpenEPKcb(ptr nocapture noundef nonnull align 8 dereferenceable(184) %0, ptr nocapture noundef readonly %1, i1 noundef zeroext %2) unnamed_addr #13 align 2 {
  %4 = getelementptr inbounds i8, ptr %0, i64 176
  %5 = load ptr, ptr %4, align 8
  %.not = icmp eq ptr %5, null
  %6 = load ptr, ptr @stdout, align 8
  %.not6 = icmp eq ptr %5, %6
  %or.cond = select i1 %.not, i1 true, i1 %.not6
  %7 = load ptr, ptr @stderr, align 8
  %.not7 = icmp eq ptr %5, %7
  %or.cond9 = select i1 %or.cond, i1 true, i1 %.not7
  br i1 %or.cond9, label %10, label %8

8:                                                ; preds = %3
  %9 = tail call i32 @fclose(ptr noundef nonnull %5)
  br label %10

10:                                               ; preds = %8, %3
  store ptr null, ptr %4, align 8
  %11 = tail call i32 @strcmp(ptr noundef nonnull dereferenceable(7) @.str.3, ptr noundef nonnull dereferenceable(1) %1) #24
  %12 = icmp eq i32 %11, 0
  br i1 %12, label %13, label %15

13:                                               ; preds = %10
  %14 = load ptr, ptr @stdout, align 8
  store ptr %14, ptr %4, align 8
  br label %22

15:                                               ; preds = %10
  %16 = tail call i32 @strcmp(ptr noundef nonnull dereferenceable(7) @.str.4, ptr noundef nonnull dereferenceable(1) %1) #24
  %17 = icmp eq i32 %16, 0
  br i1 %17, label %18, label %20

18:                                               ; preds = %15
  %19 = load ptr, ptr @stderr, align 8
  store ptr %19, ptr %4, align 8
  br label %22

20:                                               ; preds = %15
  %.str.5..str.6 = select i1 %2, ptr @.str.5, ptr @.str.6
  %21 = tail call noalias ptr @fopen(ptr noundef %1, ptr noundef nonnull %.str.5..str.6)
  store ptr %21, ptr %4, align 8
  %.not8 = icmp ne ptr %21, null
  br label %22

22:                                               ; preds = %20, %18, %13
  %.0 = phi i1 [ true, %13 ], [ true, %18 ], [ %.not8, %20 ]
  ret i1 %.0
}